target datalayout = "e-m:e-p270:32:32-p271:32:32-p272:64:64-i64:64-i128:128-f80:128-n8:16:32:64-S128"
target triple = "x86_64-pc-linux-gnu"

@hf_rdm_pd_dmx_start_address = internal global i32 0, align 4
@hf_rdm_pd_proto_vers = internal global i32 0, align 4
@hf_rdm_pd_device_model_id = internal global i32 0, align 4
@hf_rdm_pd_product_cat = internal global i32 0, align 4
@hf_rdm_pd_software_vers_id = internal global i32 0, align 4
@hf_rdm_pd_dmx_footprint = internal global i32 0, align 4
@hf_rdm_pd_dmx_pers_current = internal global i32 0, align 4
@hf_rdm_pd_dmx_pers_total = internal global i32 0, align 4
@hf_rdm_pd_sub_device_count = internal global i32 0, align 4
@hf_rdm_pd_sensor_count = internal global i32 0, align 4
@hf_etc_pd_device_model_id = internal global i32 0, align 4

; Function Attrs: null_pointer_is_valid sspstrong uwtable
define internal void @rdm_proto_tree_add_numeric_item(ptr noundef %0, i32 noundef %1, ptr noundef %2, ptr noundef %3, i8 noundef zeroext %4) #1 {
  %6 = alloca ptr, align 8
  %7 = alloca i32, align 4
  %8 = alloca ptr, align 8
  %9 = alloca ptr, align 8
  %10 = alloca i8, align 1
  %11 = alloca i32, align 4
  store ptr %0, ptr %6, align 8
  store i32 %1, ptr %7, align 4
  store ptr %2, ptr %8, align 8
  store ptr %3, ptr %9, align 8
  store i8 %4, ptr %10, align 1
  call void @llvm.lifetime.start.p0(i64 4, ptr %11) #4
  %12 = load ptr, ptr %9, align 8
  %13 = load i32, ptr %12, align 4
  store i32 %13, ptr %11, align 4
  %14 = load ptr, ptr %6, align 8
  %15 = load i32, ptr %7, align 4
  %16 = load ptr, ptr %8, align 8
  %17 = load i32, ptr %11, align 4
  %18 = load i8, ptr %10, align 1
  %19 = zext i8 %18 to i32
  %20 = call ptr @proto_tree_add_item(ptr noundef %14, i32 noundef %15, ptr noundef %16, i32 noundef %17, i32 noundef %19, i32 noundef 0)
  %21 = load i8, ptr %10, align 1
  %22 = zext i8 %21 to i32
  %23 = load ptr, ptr %9, align 8
  %24 = load i32, ptr %23, align 4
  %25 = add i32 %24, %22
  store i32 %25, ptr %23, align 4
  call void @llvm.lifetime.end.p0(i64 4, ptr %11) #4
  ret void
}

; Function Attrs: null_pointer_is_valid sspstrong uwtable
define internal i32 @dissect_rdm_pd_device_info(ptr noundef %0, i32 noundef %1, ptr noundef %2, i8 noundef zeroext %3, i8 noundef zeroext %4, i16 noundef zeroext %5) #1 {
  %7 = alloca ptr, align 8
  %8 = alloca i32, align 4
  %9 = alloca ptr, align 8
  %10 = alloca i8, align 1
  %11 = alloca i8, align 1
  %12 = alloca i16, align 2
  store ptr %0, ptr %7, align 8
  store i32 %1, ptr %8, align 4
  store ptr %2, ptr %9, align 8
  store i8 %3, ptr %10, align 1
  store i8 %4, ptr %11, align 1
  store i16 %5, ptr %12, align 2
  %13 = load i8, ptr %10, align 1
  %14 = zext i8 %13 to i32
  switch i32 %14, label %54 [
    i32 33, label %15
  ]

15:                                               ; preds = %6
  %16 = load ptr, ptr %9, align 8
  %17 = load i32, ptr @hf_rdm_pd_proto_vers, align 4
  %18 = load ptr, ptr %7, align 8
  call void @rdm_proto_tree_add_numeric_item(ptr noundef %16, i32 noundef %17, ptr noundef %18, ptr noundef %8, i8 noundef zeroext 2)
  %19 = load i16, ptr %12, align 2
  %20 = zext i16 %19 to i32
  switch i32 %20, label %25 [
    i32 25972, label %21
  ]

21:                                               ; preds = %15
  %22 = load ptr, ptr %9, align 8
  %23 = load i32, ptr @hf_etc_pd_device_model_id, align 4
  %24 = load ptr, ptr %7, align 8
  call void @rdm_proto_tree_add_numeric_item(ptr noundef %22, i32 noundef %23, ptr noundef %24, ptr noundef %8, i8 noundef zeroext 2)
  br label %29

25:                                               ; preds = %15
  %26 = load ptr, ptr %9, align 8
  %27 = load i32, ptr @hf_rdm_pd_device_model_id, align 4
  %28 = load ptr, ptr %7, align 8
  call void @rdm_proto_tree_add_numeric_item(ptr noundef %26, i32 noundef %27, ptr noundef %28, ptr noundef %8, i8 noundef zeroext 2)
  br label %29

29:                                               ; preds = %25, %21
  %30 = load ptr, ptr %9, align 8
  %31 = load i32, ptr @hf_rdm_pd_product_cat, align 4
  %32 = load ptr, ptr %7, align 8
  call void @rdm_proto_tree_add_numeric_item(ptr noundef %30, i32 noundef %31, ptr noundef %32, ptr noundef %8, i8 noundef zeroext 2)
  %33 = load ptr, ptr %9, align 8
  %34 = load i32, ptr @hf_rdm_pd_software_vers_id, align 4
  %35 = load ptr, ptr %7, align 8
  call void @rdm_proto_tree_add_numeric_item(ptr noundef %33, i32 noundef %34, ptr noundef %35, ptr noundef %8, i8 noundef zeroext 4)
  %36 = load ptr, ptr %9, align 8
  %37 = load i32, ptr @hf_rdm_pd_dmx_footprint, align 4
  %38 = load ptr, ptr %7, align 8
  call void @rdm_proto_tree_add_numeric_item(ptr noundef %36, i32 noundef %37, ptr noundef %38, ptr noundef %8, i8 noundef zeroext 2)
  %39 = load ptr, ptr %9, align 8
  %40 = load i32, ptr @hf_rdm_pd_dmx_pers_current, align 4
  %41 = load ptr, ptr %7, align 8
  call void @rdm_proto_tree_add_numeric_item(ptr noundef %39, i32 noundef %40, ptr noundef %41, ptr noundef %8, i8 noundef zeroext 1)
  %42 = load ptr, ptr %9, align 8
  %43 = load i32, ptr @hf_rdm_pd_dmx_pers_total, align 4
  %44 = load ptr, ptr %7, align 8
  call void @rdm_proto_tree_add_numeric_item(ptr noundef %42, i32 noundef %43, ptr noundef %44, ptr noundef %8, i8 noundef zeroext 1)
  %45 = load ptr, ptr %9, align 8
  %46 = load i32, ptr @hf_rdm_pd_dmx_start_address, align 4
  %47 = load ptr, ptr %7, align 8
  call void @rdm_proto_tree_add_numeric_item(ptr noundef %45, i32 noundef %46, ptr noundef %47, ptr noundef %8, i8 noundef zeroext 2)
  %48 = load ptr, ptr %9, align 8
  %49 = load i32, ptr @hf_rdm_pd_sub_device_count, align 4
  %50 = load ptr, ptr %7, align 8
  call void @rdm_proto_tree_add_numeric_item(ptr noundef %48, i32 noundef %49, ptr noundef %50, ptr noundef %8, i8 noundef zeroext 2)
  %51 = load ptr, ptr %9, align 8
  %52 = load i32, ptr @hf_rdm_pd_sensor_count, align 4
  %53 = load ptr, ptr %7, align 8
  call void @rdm_proto_tree_add_numeric_item(ptr noundef %51, i32 noundef %52, ptr noundef %53, ptr noundef %8, i8 noundef zeroext 1)
  br label %54

54:                                               ; preds = %6, %29
  %55 = load i32, ptr %8, align 4
  ret i32 %55
}