; Function Attrs: null_pointer_is_valid sspstrong uwtable
define internal fastcc range(i32 23, 43) i32 @dissect_rdm_pd_device_info(ptr noundef %0, ptr noundef %1, i8 noundef zeroext %2, i16 noundef zeroext %3) unnamed_addr #1 {
  %cond = icmp eq i8 %2, 33
  br i1 %cond, label %5, label %26

5:                                                ; preds = %4
  %6 = load i32, ptr @hf_rdm_pd_proto_vers, align 4
  %7 = tail call ptr @proto_tree_add_item(ptr noundef %1, i32 noundef %6, ptr noundef %0, i32 noundef 23, i32 noundef 2, i32 noundef 0)
  %cond1 = icmp eq i16 %3, 25972
  %hf_etc_pd_device_model_id.val = load i32, ptr @hf_etc_pd_device_model_id, align 4
  %hf_rdm_pd_device_model_id.val = load i32, ptr @hf_rdm_pd_device_model_id, align 4
  %8 = select i1 %cond1, i32 %hf_etc_pd_device_model_id.val, i32 %hf_rdm_pd_device_model_id.val
  %9 = tail call ptr @proto_tree_add_item(ptr noundef %1, i32 noundef %8, ptr noundef %0, i32 noundef 25, i32 noundef 2, i32 noundef 0)
  %10 = load i32, ptr @hf_rdm_pd_product_cat, align 4
  %11 = tail call ptr @proto_tree_add_item(ptr noundef %1, i32 noundef %10, ptr noundef %0, i32 noundef 27, i32 noundef 2, i32 noundef 0)
  %12 = load i32, ptr @hf_rdm_pd_software_vers_id, align 4
  %13 = tail call ptr @proto_tree_add_item(ptr noundef %1, i32 noundef %12, ptr noundef %0, i32 noundef 29, i32 noundef 4, i32 noundef 0)
  %14 = load i32, ptr @hf_rdm_pd_dmx_footprint, align 4
  %15 = tail call ptr @proto_tree_add_item(ptr noundef %1, i32 noundef %14, ptr noundef %0, i32 noundef 33, i32 noundef 2, i32 noundef 0)
  %16 = load i32, ptr @hf_rdm_pd_dmx_pers_current, align 4
  %17 = tail call ptr @proto_tree_add_item(ptr noundef %1, i32 noundef %16, ptr noundef %0, i32 noundef 35, i32 noundef 1, i32 noundef 0)
  %18 = load i32, ptr @hf_rdm_pd_dmx_pers_total, align 4
  %19 = tail call ptr @proto_tree_add_item(ptr noundef %1, i32 noundef %18, ptr noundef %0, i32 noundef 36, i32 noundef 1, i32 noundef 0)
  %20 = load i32, ptr @hf_rdm_pd_dmx_start_address, align 4
  %21 = tail call ptr @proto_tree_add_item(ptr noundef %1, i32 noundef %20, ptr noundef %0, i32 noundef 37, i32 noundef 2, i32 noundef 0)
  %22 = load i32, ptr @hf_rdm_pd_sub_device_count, align 4
  %23 = tail call ptr @proto_tree_add_item(ptr noundef %1, i32 noundef %22, ptr noundef %0, i32 noundef 39, i32 noundef 2, i32 noundef 0)
  %24 = load i32, ptr @hf_rdm_pd_sensor_count, align 4
  %25 = tail call ptr @proto_tree_add_item(ptr noundef %1, i32 noundef %24, ptr noundef %0, i32 noundef 41, i32 noundef 1, i32 noundef 0)
  br label %26

26:                                               ; preds = %4, %5
  %.0 = phi i32 [ 42, %5 ], [ 23, %4 ]
  ret i32 %.0
}